ASxxxx Linker V03.00 + NoICE + sdld,  page 1.
Hexadecimal  [32-Bits]

Area                                    Addr        Size        Decimal Bytes (Attributes)
--------------------------------        ----        ----        ------- ----- ------------
CABS                                00000000    00000000 =           0. bytes (ABS,CON,CODE)

      Value  Global                              Global Defined In Module
      -----  --------------------------------   ------------------------
C:   00000000  l_BIT_BANK                      
C:   00000000  l_BSEG                          
C:   00000000  l_BSEG_BYTES                    
C:   00000000  l_CABS                          
C:   00000000  l_CONST                         
C:   00000000  l_GSINIT1                       
C:   00000000  l_GSINIT5                       
C:   00000000  l_IABS                          
C:   00000000  l_ISEG                          
C:   00000000  l_OSEG                          
C:   00000000  l_PSEG                          
C:   00000000  l_REG_BANK_1                    
C:   00000000  l_REG_BANK_2                    
C:   00000000  l_REG_BANK_3                    
C:   00000000  l_RSEG                          
C:   00000000  l_XABS                          
C:   00000000  l_XINIT                         
C:   00000000  l_XISEG                         
C:   00000000  l_XSEG                          
C:   00000000  l__CODE                         
C:   00000000  s_BSEG                          
C:   00000000  s_CABS                          
C:   00000000  s_DSEG                          
C:   00000000  s_HOME                          
C:   00000000  s_IABS                          
C:   00000000  s_ISEG                          
C:   00000000  s_REG_BANK_0                    
C:   00000000  s_RSEG                          
C:   00000000  s_RSEG0                         
C:   00000000  s_RSEG1                         
C:   00000000  s_XABS                          
C:   00000001  s_PSEG                          
C:   00000001  s_XISEG                         
C:   00000001  s_XSEG                          
C:   00000003  l_GSFINAL                       
C:   00000003  l_GSINIT0                       
C:   00000006  l_HOME                          
C:   00000006  s_GSINIT0                       
C:   00000008  l_REG_BANK_0                    
C:   00000008  s_REG_BANK_1                    
C:   00000009  s_GSINIT1                       
C:   00000009  s_GSINIT2                       
C:   0000000A  l_GSINIT2                       
C:   00000010  s_REG_BANK_2                    
C:   00000013  s_GSINIT3                       
C:   00000018  s_BIT_BANK                      
C:   00000018  s_OSEG                          
C:   00000018  s_REG_BANK_3                    
C:   00000020  s_BSEG_BYTES                    
C:   00000020  s__CODE                         
ASxxxx Linker V03.00 + NoICE + sdld,  page 2.
Hexadecimal  [32-Bits]

Area                                    Addr        Size        Decimal Bytes (Attributes)
--------------------------------        ----        ----        ------- ----- ------------
CABS                                00000000    00000000 =           0. bytes (ABS,CON,CODE)

      Value  Global                              Global Defined In Module
      -----  --------------------------------   ------------------------
C:   00000022  l_GSINIT3                       
C:   0000002A  l_GSINIT4                       
C:   00000035  s_GSINIT4                       
C:   0000005F  s_GSINIT                        
C:   0000005F  s_GSINIT5                       
C:   00000076  s_SSEG                          
C:   00000080  l_DSEG                          
C:   0000008A  l_SSEG                          
C:   00000100  l_IRAM                          
C:   00000100  l_RSEG1                         
C:   00000378  l_RSEG0                         
C:   0000085F  l_CSEG                          
C:   00000C75  l_GSINIT                        
C:   00000CD4  s_GSFINAL                       
C:   00000CD7  s_CSEG                          
C:   00001536  s_CONST                         
C:   00001536  s_XINIT                         

ASxxxx Linker V03.00 + NoICE + sdld,  page 3.
Hexadecimal  [32-Bits]

Area                                    Addr        Size        Decimal Bytes (Attributes)
--------------------------------        ----        ----        ------- ----- ------------
RSEG1                               00000000    00000100 =         256. bytes (ABS,CON)

      Value  Global                              Global Defined In Module
      -----  --------------------------------   ------------------------
     00000000  _P00                               mc96f8x16_gpio
     00000001  _P01                               mc96f8x16_gpio
     00000002  _P02                               mc96f8x16_gpio
     00000003  _P03                               mc96f8x16_gpio
     00000004  _P04                               mc96f8x16_gpio
     00000005  _P05                               mc96f8x16_gpio
     00000006  _P06                               mc96f8x16_gpio
     00000007  _P07                               mc96f8x16_gpio
     00000008  _P10                               mc96f8x16_gpio
     00000009  _P11                               mc96f8x16_gpio
     0000000A  _P12                               mc96f8x16_gpio
     0000000B  _P13                               mc96f8x16_gpio
     0000000C  _P14                               mc96f8x16_gpio
     0000000D  _P15                               mc96f8x16_gpio
     0000000E  _P16                               mc96f8x16_gpio
     0000000F  _P17                               mc96f8x16_gpio
     00000010  _P20                               mc96f8x16_gpio
     00000011  _P21                               mc96f8x16_gpio
     00000012  _P22                               mc96f8x16_gpio
     00000013  _P23                               mc96f8x16_gpio
     00000014  _P24                               mc96f8x16_gpio
     00000015  _P25                               mc96f8x16_gpio
     00000016  _P26                               mc96f8x16_gpio
     00000017  _P27                               mc96f8x16_gpio
     00000018  _P30                               mc96f8x16_gpio
     00000019  _P31                               mc96f8x16_gpio
     0000001A  _P32                               mc96f8x16_gpio
     0000001B  _P33                               mc96f8x16_gpio
     0000001C  _P34                               mc96f8x16_gpio
     0000001D  _P35                               mc96f8x16_gpio
     0000001E  _P36                               mc96f8x16_gpio
     0000001F  _P37                               mc96f8x16_gpio

ASxxxx Linker V03.00 + NoICE + sdld,  page 4.
Hexadecimal  [32-Bits]

Area                                    Addr        Size        Decimal Bytes (Attributes)
--------------------------------        ----        ----        ------- ----- ------------
RSEG0                               00000000    00000378 =         888. bytes (ABS,CON)

      Value  Global                              Global Defined In Module
      -----  --------------------------------   ------------------------
     00000000  _P0                                mc96f8x16_gpio
     00000001  _P0IO                              mc96f8x16_gpio
     00000002  _P0OD                              mc96f8x16_gpio
     00000003  _P0PU                              mc96f8x16_gpio
     00000004  _P03DB                             mc96f8x16_gpio
     00000005  _P1                                mc96f8x16_gpio
     00000006  _P1IO                              mc96f8x16_gpio
     00000007  _P1OD                              mc96f8x16_gpio
     00000008  _P1PU                              mc96f8x16_gpio
     00000009  _P12DB                             mc96f8x16_gpio
     0000000A  _P2                                mc96f8x16_gpio
     0000000B  _P2IO                              mc96f8x16_gpio
     0000000C  _P2OD                              mc96f8x16_gpio
     0000000D  _P2PU                              mc96f8x16_gpio
     0000000E  _P3                                mc96f8x16_gpio
     0000000F  _P3IO                              mc96f8x16_gpio
     00000010  _P3OD                              mc96f8x16_gpio
     00000011  _P3PU                              mc96f8x16_gpio
     00000012  _P0FSR                             mc96f8x16_gpio
     00000013  _P1FSRL                            mc96f8x16_gpio
     00000014  _P1FSRH                            mc96f8x16_gpio
     00000015  _P2FSR                             mc96f8x16_gpio
     00000016  _P3FSR                             mc96f8x16_gpio
     00000017  _IE                                mc96f8x16_gpio
     00000018  _IE1                               mc96f8x16_gpio
     00000019  _IE2                               mc96f8x16_gpio
     0000001A  _IE3                               mc96f8x16_gpio
     0000001B  _IP                                mc96f8x16_gpio
     0000001C  _IP1                               mc96f8x16_gpio
     0000001D  _IIFLAG                            mc96f8x16_gpio
     0000001E  _EIFLAG0                           mc96f8x16_gpio
     0000001F  _EIFLAG1                           mc96f8x16_gpio
     00000020  _EIPOL0L                           mc96f8x16_gpio
     00000021  _EIPOL0H                           mc96f8x16_gpio
     00000022  _EIPOL1                            mc96f8x16_gpio
     00000023  _EIPOL2                            mc96f8x16_gpio
     00000024  _SCCR                              mc96f8x16_gpio
     00000025  _OSCCR                             mc96f8x16_gpio
     00000026  _BITCNT                            mc96f8x16_gpio
     00000027  _BITCR                             mc96f8x16_gpio
     00000028  _RSTFR                             mc96f8x16_gpio
     00000029  _PCON                              mc96f8x16_gpio
     0000002A  _LVRCR                             mc96f8x16_gpio
     0000002B  _LVICR                             mc96f8x16_gpio
     0000002C  _WDTDR                             mc96f8x16_gpio
     0000002D  _WDTCNT                            mc96f8x16_gpio
     0000002E  _WDTCR                             mc96f8x16_gpio
     0000002F  _WTDR                              mc96f8x16_gpio
     00000030  _WTCNT                             mc96f8x16_gpio
     00000031  _WTCR                              mc96f8x16_gpio
ASxxxx Linker V03.00 + NoICE + sdld,  page 5.
Hexadecimal  [32-Bits]

Area                                    Addr        Size        Decimal Bytes (Attributes)
--------------------------------        ----        ----        ------- ----- ------------
RSEG0                               00000000    00000378 =         888. bytes (ABS,CON)

      Value  Global                              Global Defined In Module
      -----  --------------------------------   ------------------------
     00000032  _T0CR                              mc96f8x16_gpio
     00000033  _T0CNT                             mc96f8x16_gpio
     00000034  _T0DR                              mc96f8x16_gpio
     00000035  _T0CDR                             mc96f8x16_gpio
     00000036  _T1CRL                             mc96f8x16_gpio
     00000037  _T1CRH                             mc96f8x16_gpio
     00000038  _T1ADRL                            mc96f8x16_gpio
     00000039  _T1ADRH                            mc96f8x16_gpio
     0000003A  _T1BDRL                            mc96f8x16_gpio
     0000003B  _T1BDRH                            mc96f8x16_gpio
     0000003C  _T2CRL                             mc96f8x16_gpio
     0000003D  _T2CRH                             mc96f8x16_gpio
     0000003E  _T2ADRL                            mc96f8x16_gpio
     0000003F  _T2ADRH                            mc96f8x16_gpio
     00000040  _T2BDRL                            mc96f8x16_gpio
     00000041  _T2BDRH                            mc96f8x16_gpio
     00000042  _BUZDR                             mc96f8x16_gpio
     00000043  _BUZCR                             mc96f8x16_gpio
     00000044  _ADCCRL                            mc96f8x16_gpio
     00000045  _ADCCRH                            mc96f8x16_gpio
     00000046  _ADCDRL                            mc96f8x16_gpio
     00000047  _ADCDRH                            mc96f8x16_gpio
     00000048  _ADWRCR0                           mc96f8x16_gpio
     00000049  _ADWRCR1                           mc96f8x16_gpio
     0000004A  _ADWRCR2                           mc96f8x16_gpio
     0000004B  _ADWRCR3                           mc96f8x16_gpio
     0000004C  _ADWCRL                            mc96f8x16_gpio
     0000004D  _ADWCRH                            mc96f8x16_gpio
     0000004E  _ADWIFRL                           mc96f8x16_gpio
     0000004F  _ADWIFRH                           mc96f8x16_gpio
     00000050  _SPICR                             mc96f8x16_gpio
     00000051  _SPIDR                             mc96f8x16_gpio
     00000052  _SPISR                             mc96f8x16_gpio
     00000053  _UARTCR1                           mc96f8x16_gpio
     00000054  _UARTCR2                           mc96f8x16_gpio
     00000055  _UARTCR3                           mc96f8x16_gpio
     00000056  _UARTST                            mc96f8x16_gpio
     00000057  _UARTBD                            mc96f8x16_gpio
     00000058  _UARTDR                            mc96f8x16_gpio
     00000059  _I2CCR                             mc96f8x16_gpio
     0000005A  _I2CSR                             mc96f8x16_gpio
     0000005B  _I2CSAR0                           mc96f8x16_gpio
     0000005C  _I2CSAR1                           mc96f8x16_gpio
     0000005D  _I2CDR                             mc96f8x16_gpio
     0000005E  _I2CSDHR                           mc96f8x16_gpio
     0000005F  _I2CSCLR                           mc96f8x16_gpio
     00000060  _I2CSCHR                           mc96f8x16_gpio
     00000061  _FSADRH                            mc96f8x16_gpio
     00000062  _FSADRM                            mc96f8x16_gpio
     00000063  _FSADRL                            mc96f8x16_gpio
     00000064  _FIDR                              mc96f8x16_gpio
ASxxxx Linker V03.00 + NoICE + sdld,  page 6.
Hexadecimal  [32-Bits]

Area                                    Addr        Size        Decimal Bytes (Attributes)
--------------------------------        ----        ----        ------- ----- ------------
RSEG0                               00000000    00000378 =         888. bytes (ABS,CON)

      Value  Global                              Global Defined In Module
      -----  --------------------------------   ------------------------
     00000065  _FMCR                              mc96f8x16_gpio
     00000066  _ACC                               mc96f8x16_gpio
     00000067  _B                                 mc96f8x16_gpio
     00000068  _PSW                               mc96f8x16_gpio
     00000069  _SP                                mc96f8x16_gpio
     0000006A  _DPL                               mc96f8x16_gpio
     0000006B  _DPH                               mc96f8x16_gpio
     0000006C  _DPL1                              mc96f8x16_gpio
     0000006D  _DPH1                              mc96f8x16_gpio
     0000006E  _EO                                mc96f8x16_gpio
ASxxxx Linker V03.00 + NoICE + sdld,  page 7.
Hexadecimal  [32-Bits]

Area                                    Addr        Size        Decimal Bytes (Attributes)
--------------------------------        ----        ----        ------- ----- ------------
.  .ABS.                            00000000    00000000 =           0. bytes (ABS,CON)

      Value  Global                              Global Defined In Module
      -----  --------------------------------   ------------------------
     00000000  .__.ABS.                           _startup
     000000A0  __XPAGE                            
     000000F5  _B_5                               _gptrget
     000000F6  _B_6                               _gptrget
     000000F7  _B_7                               _gptrget

ASxxxx Linker V03.00 + NoICE + sdld,  page 8.
Hexadecimal  [32-Bits]

Area                                    Addr        Size        Decimal Bytes (Attributes)
--------------------------------        ----        ----        ------- ----- ------------
REG_BANK_0                          00000000    00000008 =           8. bytes (REL,OVR)

      Value  Global                              Global Defined In Module
      -----  --------------------------------   ------------------------
ASxxxx Linker V03.00 + NoICE + sdld,  page 9.
Hexadecimal  [32-Bits]

Area                                    Addr        Size        Decimal Bytes (Attributes)
--------------------------------        ----        ----        ------- ----- ------------
DSEG                                00000000    00000080 =         128. bytes (REL,CON)

      Value  Global                              Global Defined In Module
      -----  --------------------------------   ------------------------
     0000006F  _i                                 main
     00000071  _Buf                               main
     00000072  _Tick                              mc96f8x16_tim
     00000074  _RxData                            mc96f8x16_uart
     00000075  _bp                                _bp

ASxxxx Linker V03.00 + NoICE + sdld,  page 10.
Hexadecimal  [32-Bits]

Area                                    Addr        Size        Decimal Bytes (Attributes)
--------------------------------        ----        ----        ------- ----- ------------
SSEG                                00000076    0000008A =         138. bytes (REL,OVR)

      Value  Global                              Global Defined In Module
      -----  --------------------------------   ------------------------
     00000076  __start__stack                     main

ASxxxx Linker V03.00 + NoICE + sdld,  page 11.
Hexadecimal  [32-Bits]

Area                                    Addr        Size        Decimal Bytes (Attributes)
--------------------------------        ----        ----        ------- ----- ------------
HOME                                00000000    00000006 =           6. bytes (REL,CON,CODE)

      Value  Global                              Global Defined In Module
      -----  --------------------------------   ------------------------
C:   00000003  __sdcc_program_startup             main

ASxxxx Linker V03.00 + NoICE + sdld,  page 12.
Hexadecimal  [32-Bits]

Area                                    Addr        Size        Decimal Bytes (Attributes)
--------------------------------        ----        ----        ------- ----- ------------
GSINIT0                             00000006    00000003 =           3. bytes (REL,CON,CODE)

      Value  Global                              Global Defined In Module
      -----  --------------------------------   ------------------------
C:   00000006  __sdcc_gsinit_startup              

ASxxxx Linker V03.00 + NoICE + sdld,  page 13.
Hexadecimal  [32-Bits]

Area                                    Addr        Size        Decimal Bytes (Attributes)
--------------------------------        ----        ----        ------- ----- ------------
GSINIT2                             00000009    0000000A =          10. bytes (REL,CON,CODE)

      Value  Global                              Global Defined In Module
      -----  --------------------------------   ------------------------
ASxxxx Linker V03.00 + NoICE + sdld,  page 14.
Hexadecimal  [32-Bits]

Area                                    Addr        Size        Decimal Bytes (Attributes)
--------------------------------        ----        ----        ------- ----- ------------
GSINIT3                             00000013    00000022 =          34. bytes (REL,CON,CODE)

      Value  Global                              Global Defined In Module
      -----  --------------------------------   ------------------------
C:   00000013  __mcs51_genXINIT                   

ASxxxx Linker V03.00 + NoICE + sdld,  page 15.
Hexadecimal  [32-Bits]

Area                                    Addr        Size        Decimal Bytes (Attributes)
--------------------------------        ----        ----        ------- ----- ------------
GSINIT4                             00000035    0000002A =          42. bytes (REL,CON,CODE)

      Value  Global                              Global Defined In Module
      -----  --------------------------------   ------------------------
C:   00000035  __mcs51_genRAMCLEAR                
C:   0000003B  __mcs51_genXRAMCLEAR               

ASxxxx Linker V03.00 + NoICE + sdld,  page 16.
Hexadecimal  [32-Bits]

Area                                    Addr        Size        Decimal Bytes (Attributes)
--------------------------------        ----        ----        ------- ----- ------------
GSINIT                              0000005F    00000C75 =        3189. bytes (REL,CON,CODE)

      Value  Global                              Global Defined In Module
      -----  --------------------------------   ------------------------
ASxxxx Linker V03.00 + NoICE + sdld,  page 17.
Hexadecimal  [32-Bits]

Area                                    Addr        Size        Decimal Bytes (Attributes)
--------------------------------        ----        ----        ------- ----- ------------
GSFINAL                             00000CD4    00000003 =           3. bytes (REL,CON,CODE)

      Value  Global                              Global Defined In Module
      -----  --------------------------------   ------------------------
ASxxxx Linker V03.00 + NoICE + sdld,  page 18.
Hexadecimal  [32-Bits]

Area                                    Addr        Size        Decimal Bytes (Attributes)
--------------------------------        ----        ----        ------- ----- ------------
CSEG                                00000CD7    0000085F =        2143. bytes (REL,CON,CODE)

      Value  Global                              Global Defined In Module
      -----  --------------------------------   ------------------------
C:   00000CD7  _I2C_Config                        mc96f8x16_i2c
C:   00000D2C  _I2C_Master_Transmit               mc96f8x16_i2c
C:   00000E2B  _I2C_Master_Receive                mc96f8x16_i2c
C:   00000F46  _WDT_Config                        mc96f8x16_wdt
C:   00000F4D  _WDT_Clear                         mc96f8x16_wdt
C:   00000F55  _putchar                           log
C:   00000F9B  _main                              main
C:   00001042  _SysClock_Config                   mc96f8x16_cg
C:   0000104A  _SysTick_Init                      mc96f8x16_tim
C:   0000105B  _GetTick                           mc96f8x16_tim
C:   00001062  _SysTick_ISR                       mc96f8x16_tim
C:   00001079  _Delayms                           mc96f8x16_tim
C:   00001112  _CheckTimeout                      mc96f8x16_tim
C:   000011A4  _UART_Config                       mc96f8x16_uart
C:   0000122D  _UART_Transmit                     mc96f8x16_uart
C:   0000130C  _UART_Receive                      mc96f8x16_uart
C:   000013EB  _UART_Receive_ISR                  mc96f8x16_uart
C:   000013EF  _GPIO_Config                       mc96f8x16_gpio
C:   00001408  _GPIOPin_Write                     mc96f8x16_gpio
C:   0000148A  _GPIOPin_Read                      mc96f8x16_gpio
C:   000014D0  _GPIOPin_Toggle                    mc96f8x16_gpio
C:   000014FB  __gptrput                          _gptrput
C:   00001516  __gptrget                          _gptrget
C:   00001532  __sdcc_external_startup            _startup
ASxxxx Linker V03.00 + NoICE + sdld,  page 19.

Files Linked                              [ module(s) ]

obj/mc96f8x16_i2c.rel                     [  ]
obj/mc96f8x16_wdt.rel                     [  ]
obj/log.rel                               [  ]
obj/main.rel                              [  ]
obj/mc96f8x16_cg.rel                      [  ]
obj/mc96f8x16_tim.rel                     [  ]
obj/mc96f8x16_uart.rel                    [  ]
obj/mc96f8x16_gpio.rel                    [  ]


Libraries Linked                          [ object file ]

/usr/bin/../share/sdcc/lib/small-stack-auto/mcs51.lib
                                          [ crtclear.rel ]
/usr/bin/../share/sdcc/lib/small-stack-auto/mcs51.lib
                                          [ crtxinit.rel ]
/usr/bin/../share/sdcc/lib/small-stack-auto/libsdcc.lib
                                          [ _gptrput.rel ]
/usr/bin/../share/sdcc/lib/small-stack-auto/mcs51.lib
                                          [ crtxclear.rel ]
/usr/bin/../share/sdcc/lib/small-stack-auto/libsdcc.lib
                                          [ _bp.rel ]
/usr/bin/../share/sdcc/lib/small-stack-auto/mcs51.lib
                                          [ crtpagesfr.rel ]
/usr/bin/../share/sdcc/lib/small-stack-auto/mcs51.lib
                                          [ crtstart.rel ]
/usr/bin/../share/sdcc/lib/small-stack-auto/libsdcc.lib
                                          [ _gptrget.rel ]
/usr/bin/../share/sdcc/lib/small-stack-auto/libsdcc.lib
                                          [ _startup.rel ]

ASxxxx Linker V03.00 + NoICE + sdld,  page 20.

User Base Address Definitions

HOME = 0x0000
XSEG = 0x0001
PSEG = 0x0001
ISEG = 0x0000
BSEG = 0x0000

